target datalayout = "e-m:e-p270:32:32-p271:32:32-p272:64:64-i64:64-i128:128-f80:128-n8:16:32:64-S128"
target triple = "x86_64-pc-linux-gnu"

%struct.BrinOpcInfo = type { i16, i8, ptr, [0 x ptr] }

; Function Attrs: inlinehint nounwind uwtable
define internal i64 @PointerGetDatum(ptr noundef %0) #3 {
  %2 = alloca ptr, align 8
  store ptr %0, ptr %2, align 8
  %3 = load ptr, ptr %2, align 8
  %4 = ptrtoint ptr %3 to i64
  ret i64 %4
}

; Function Attrs: nounwind uwtable
define dso_local i64 @brin_minmax_multi_opcinfo(ptr noundef %0) #0 {
  %2 = alloca ptr, align 8
  %3 = alloca ptr, align 8
  store ptr %0, ptr %2, align 8
  call void @llvm.lifetime.start.p0(i64 8, ptr %3) #8
  %4 = call ptr @palloc0(i64 noundef 320)
  store ptr %4, ptr %3, align 8
  %5 = load ptr, ptr %3, align 8
  %6 = getelementptr inbounds nuw %struct.BrinOpcInfo, ptr %5, i32 0, i32 0
  store i16 1, ptr %6, align 8
  %7 = load ptr, ptr %3, align 8
  %8 = getelementptr inbounds nuw %struct.BrinOpcInfo, ptr %7, i32 0, i32 1
  store i8 1, ptr %8, align 2
  %9 = load ptr, ptr %3, align 8
  %10 = getelementptr inbounds nuw i8, ptr %9, i64 24
  %11 = ptrtoint ptr %10 to i64
  %12 = add i64 %11, 7
  %13 = and i64 %12, -8
  %14 = inttoptr i64 %13 to ptr
  %15 = load ptr, ptr %3, align 8
  %16 = getelementptr inbounds nuw %struct.BrinOpcInfo, ptr %15, i32 0, i32 2
  store ptr %14, ptr %16, align 8
  %17 = call ptr @lookup_type_cache(i32 noundef 4601, i32 noundef 0)
  %18 = load ptr, ptr %3, align 8
  %19 = getelementptr inbounds nuw %struct.BrinOpcInfo, ptr %18, i32 0, i32 3
  %20 = getelementptr inbounds [0 x ptr], ptr %19, i64 0, i64 0
  store ptr %17, ptr %20, align 8
  %21 = load ptr, ptr %3, align 8
  %22 = call i64 @PointerGetDatum(ptr noundef %21)
  call void @llvm.lifetime.end.p0(i64 8, ptr %3) #8
  ret i64 %22
}